; Function Attrs: null_pointer_is_valid sspstrong uwtable
define internal i32 @dissect_ngap_PLMNIdentity(ptr noundef %0, i32 noundef %1, ptr noundef %2, ptr noundef %3, i32 noundef %4) #0 {
  %6 = alloca ptr, align 8
  %7 = alloca i32, align 4
  call void @llvm.lifetime.start.p0(i64 8, ptr nonnull %6) #12
  store ptr null, ptr %6, align 8
  %8 = getelementptr inbounds nuw i8, ptr %2, i64 16
  %9 = load ptr, ptr %8, align 8
  %10 = getelementptr inbounds nuw i8, ptr %9, i64 408
  %11 = load ptr, ptr %10, align 8
  %12 = load i32, ptr @proto_ngap, align 4
  %13 = tail call ptr @p_get_proto_data(ptr noundef %11, ptr noundef %9, i32 noundef %12, i32 noundef 0)
  %.not.i = icmp eq ptr %13, null
  br i1 %.not.i, label %14, label %ngap_get_private_data.exit

14:                                               ; preds = %5
  %15 = load ptr, ptr %10, align 8
  %16 = tail call noalias dereferenceable_or_null(72) ptr @wmem_alloc0(ptr noundef %15, i64 noundef 72) #13
  %17 = getelementptr inbounds nuw i8, ptr %16, i64 24
  store i32 -1, ptr %17, align 8
  %18 = getelementptr inbounds nuw i8, ptr %16, i64 56
  store i8 -1, ptr %18, align 8
  %19 = load ptr, ptr %10, align 8
  %20 = load i32, ptr @proto_ngap, align 4
  tail call void @p_add_proto_data(ptr noundef %19, ptr noundef %9, i32 noundef %20, i32 noundef 0, ptr noundef %16)
  br label %ngap_get_private_data.exit

ngap_get_private_data.exit:                       ; preds = %5, %14
  %.0.i = phi ptr [ %13, %5 ], [ %16, %14 ]
  %21 = getelementptr inbounds nuw i8, ptr %.0.i, i64 52
  %22 = load i32, ptr %21, align 4
  store i32 0, ptr %21, align 4
  %23 = call i32 @dissect_per_octet_string(ptr noundef %0, i32 noundef %1, ptr noundef %2, ptr noundef %3, i32 noundef %4, i32 noundef 3, i32 noundef 3, i1 noundef zeroext false, ptr noundef nonnull %6)
  %24 = load ptr, ptr %6, align 8
  %.not = icmp eq ptr %24, null
  br i1 %.not, label %48, label %25

25:                                               ; preds = %ngap_get_private_data.exit
  %26 = getelementptr inbounds nuw i8, ptr %2, i64 24
  %27 = load ptr, ptr %26, align 8
  %28 = load i32, ptr @ett_ngap_PLMNIdentity, align 4
  %29 = call ptr @proto_item_add_subtree(ptr noundef %27, i32 noundef %28)
  %30 = load ptr, ptr %6, align 8
  %31 = load ptr, ptr %8, align 8
  %32 = call i32 @dissect_e212_mcc_mnc(ptr noundef %30, ptr noundef %31, ptr noundef %29, i32 noundef 0, i32 noundef %22, i1 noundef zeroext false)
  %33 = getelementptr inbounds nuw i8, ptr %.0.i, i64 32
  %34 = load ptr, ptr %33, align 8
  %.not16 = icmp eq ptr %34, null
  br i1 %.not16, label %41, label %35

35:                                               ; preds = %25
  call void @llvm.lifetime.start.p0(i64 4, ptr nonnull %7) #12
  %36 = load ptr, ptr %6, align 8
  %37 = call i32 @tvb_get_ntoh24(ptr noundef %36, i32 noundef 0)
  store i32 %37, ptr %7, align 4
  %38 = load ptr, ptr %33, align 8
  %39 = getelementptr inbounds nuw i8, ptr %38, i64 8
  %40 = load ptr, ptr %39, align 8
  call void @wmem_array_append(ptr noundef %40, ptr noundef nonnull %7, i32 noundef 1)
  call void @llvm.lifetime.end.p0(i64 4, ptr nonnull %7) #12
  br label %48

41:                                               ; preds = %25
  %42 = getelementptr inbounds nuw i8, ptr %.0.i, i64 40
  %43 = load ptr, ptr %42, align 8
  %.not17 = icmp eq ptr %43, null
  br i1 %.not17, label %48, label %44

44:                                               ; preds = %41
  %45 = load ptr, ptr %6, align 8
  %46 = call i32 @tvb_get_ntoh24(ptr noundef %45, i32 noundef 0)
  %47 = load ptr, ptr %42, align 8
  store i32 %46, ptr %47, align 4
  br label %48

48:                                               ; preds = %35, %44, %41, %ngap_get_private_data.exit
  call void @llvm.lifetime.end.p0(i64 8, ptr nonnull %6) #12
  ret i32 %23
}